; Function Attrs: nounwind uwtable
define void @Gia_ManCheckIntegrityWithBoxes(ptr noundef %0) local_unnamed_addr #0 {
  %2 = getelementptr inbounds nuw i8, ptr %0, i64 736
  %3 = load ptr, ptr %2, align 8, !tbaa !31
  %4 = icmp eq ptr %3, null
  br i1 %4, label %66, label %5

5:                                                ; preds = %1
  %6 = getelementptr inbounds nuw i8, ptr %0, i64 144
  %7 = load ptr, ptr %6, align 8, !tbaa !72
  %.not = icmp eq ptr %7, null
  br i1 %.not, label %9, label %8

8:                                                ; preds = %5
  tail call void @free(ptr noundef nonnull %7) #19
  store ptr null, ptr %6, align 8, !tbaa !72
  br label %9

9:                                                ; preds = %5, %8
  tail call void @Gia_ManCreateRefs(ptr noundef nonnull %0) #19
  %10 = getelementptr i8, ptr %0, i64 16
  %.val45 = load i32, ptr %10, align 8, !tbaa !32
  %11 = getelementptr i8, ptr %0, i64 72
  %.val46 = load ptr, ptr %11, align 8, !tbaa !33
  %12 = getelementptr i8, ptr %.val46, i64 4
  %.val46.val = load i32, ptr %12, align 4, !tbaa !34
  %13 = tail call i32 @Gia_ManRegBoxNum(ptr noundef nonnull %0) #19
  %14 = add i32 %.val45, %13
  %15 = sub i32 %.val46.val, %14
  %.val43 = load i32, ptr %10, align 8, !tbaa !32
  %.val44 = load ptr, ptr %11, align 8, !tbaa !33
  %16 = getelementptr i8, ptr %.val44, i64 4
  %.val44.val = load i32, ptr %16, align 4, !tbaa !34
  %17 = sub nsw i32 %.val44.val, %.val43
  %18 = icmp slt i32 %15, %17
  br i1 %18, label %.lr.ph, label %._crit_edge

.lr.ph:                                           ; preds = %9
  %19 = getelementptr i8, ptr %0, i64 32
  %.val49 = load ptr, ptr %19, align 8, !tbaa !28
  %20 = getelementptr i8, ptr %.val44, i64 8
  %.val50.val = load ptr, ptr %20, align 8, !tbaa !35
  %.val54 = load ptr, ptr %6, align 8, !tbaa !72
  %21 = ptrtoint ptr %.val49 to i64
  %22 = sext i32 %15 to i64
  %23 = sext i32 %17 to i64
  br label %24

24:                                               ; preds = %.lr.ph, %24
  %indvars.iv = phi i64 [ %22, %.lr.ph ], [ %indvars.iv.next, %24 ]
  %.03358 = phi i32 [ 0, %.lr.ph ], [ %spec.select, %24 ]
  %25 = getelementptr inbounds i32, ptr %.val50.val, i64 %indvars.iv
  %26 = load i32, ptr %25, align 4, !tbaa !29
  %27 = sext i32 %26 to i64
  %28 = getelementptr inbounds %struct.Gia_Obj_t_, ptr %.val49, i64 %27
  %29 = load i64, ptr %28, align 4
  %30 = and i64 %29, 536870911
  %31 = sub nsw i64 0, %30
  %32 = getelementptr inbounds %struct.Gia_Obj_t_, ptr %28, i64 %31
  %33 = ptrtoint ptr %32 to i64
  %34 = sub i64 %33, %21
  %35 = sdiv exact i64 %34, 12
  %sext.i = shl i64 %35, 32
  %36 = ashr exact i64 %sext.i, 30
  %37 = getelementptr inbounds i8, ptr %.val54, i64 %36
  %38 = load i32, ptr %37, align 4, !tbaa !29
  %39 = icmp sgt i32 %38, 1
  %40 = zext i1 %39 to i32
  %spec.select = add nuw nsw i32 %.03358, %40
  %indvars.iv.next = add nsw i64 %indvars.iv, 1
  %41 = icmp slt i64 %indvars.iv.next, %23
  br i1 %41, label %24, label %._crit_edge, !llvm.loop !74

._crit_edge:                                      ; preds = %24, %9
  %.033.lcssa = phi i32 [ 0, %9 ], [ %spec.select, %24 ]
  %42 = tail call ptr @Gia_ManComputeCarryOuts(ptr noundef nonnull %0)
  %43 = getelementptr i8, ptr %42, i64 4
  %.val = load i32, ptr %43, align 4, !tbaa !34
  %44 = icmp sgt i32 %.val, 0
  br i1 %44, label %.lr.ph62, label %.critedge

.lr.ph62:                                         ; preds = %._crit_edge
  %45 = getelementptr i8, ptr %0, i64 32
  %.val48 = load ptr, ptr %45, align 8, !tbaa !28
  %.not40 = icmp eq ptr %.val48, null
  br i1 %.not40, label %.critedge, label %.lr.ph62.split

.lr.ph62.split:                                   ; preds = %.lr.ph62
  %46 = getelementptr i8, ptr %42, i64 8
  %.val47 = load ptr, ptr %46, align 8, !tbaa !35
  %.val52 = load ptr, ptr %6, align 8, !tbaa !72
  %wide.trip.count = zext nneg i32 %.val to i64
  br label %47

47:                                               ; preds = %.lr.ph62.split, %47
  %indvars.iv67 = phi i64 [ 0, %.lr.ph62.split ], [ %indvars.iv.next68, %47 ]
  %.060 = phi i32 [ 0, %.lr.ph62.split ], [ %spec.select42, %47 ]
  %48 = getelementptr inbounds nuw i32, ptr %.val47, i64 %indvars.iv67
  %49 = load i32, ptr %48, align 4, !tbaa !29
  %50 = zext i32 %49 to i64
  %sext.i55 = shl nuw i64 %50, 32
  %51 = ashr exact i64 %sext.i55, 30
  %52 = getelementptr inbounds i8, ptr %.val52, i64 %51
  %53 = load i32, ptr %52, align 4, !tbaa !29
  %54 = icmp sgt i32 %53, 1
  %55 = zext i1 %54 to i32
  %spec.select42 = add nuw nsw i32 %.060, %55
  %indvars.iv.next68 = add nuw nsw i64 %indvars.iv67, 1
  %exitcond.not = icmp eq i64 %indvars.iv.next68, %wide.trip.count
  br i1 %exitcond.not, label %.critedge, label %47, !llvm.loop !75

.critedge:                                        ; preds = %47, %.lr.ph62, %._crit_edge
  %.0.lcssa = phi i32 [ 0, %._crit_edge ], [ 0, %.lr.ph62 ], [ %spec.select42, %47 ]
  %56 = getelementptr inbounds nuw i8, ptr %42, i64 8
  %57 = load ptr, ptr %56, align 8, !tbaa !35
  %.not.i = icmp eq ptr %57, null
  br i1 %.not.i, label %Vec_IntFree.exit, label %58

58:                                               ; preds = %.critedge
  tail call void @free(ptr noundef nonnull %57) #19
  br label %Vec_IntFree.exit

Vec_IntFree.exit:                                 ; preds = %.critedge, %58
  tail call void @free(ptr noundef nonnull %42) #19
  %59 = icmp ne i32 %.033.lcssa, 0
  %60 = icmp ne i32 %.0.lcssa, 0
  %or.cond = select i1 %59, i1 true, i1 %60
  br i1 %or.cond, label %61, label %63

61:                                               ; preds = %Vec_IntFree.exit
  %62 = tail call i32 (ptr, ...) @printf(ptr noundef nonnull dereferenceable(1) @.str, i32 noundef %.033.lcssa, i32 noundef %.0.lcssa)
  br label %63

63:                                               ; preds = %Vec_IntFree.exit, %61
  %64 = load ptr, ptr %6, align 8, !tbaa !72
  %.not41 = icmp eq ptr %64, null
  br i1 %.not41, label %66, label %65

65:                                               ; preds = %63
  tail call void @free(ptr noundef nonnull %64) #19
  store ptr null, ptr %6, align 8, !tbaa !72
  br label %66

66:                                               ; preds = %65, %63, %1
  ret void
}